; Function Attrs: nounwind uwtable
define hidden i32 @_ir_PHI_2(ptr nocapture noundef %0, i32 noundef %1, i32 noundef %2, i32 noundef %3) local_unnamed_addr #0 {
  %5 = icmp eq i32 %2, %3
  %6 = icmp ne i32 %2, 0
  %or.cond = and i1 %6, %5
  br i1 %or.cond, label %40, label %7

7:                                                ; preds = %4
  %8 = shl i32 %1, 8
  %9 = or i32 %8, 196667
  %10 = getelementptr inbounds i8, ptr %0, i64 248
  %11 = load i32, ptr %10, align 8
  %12 = getelementptr inbounds i8, ptr %0, i64 8
  %13 = load i32, ptr %12, align 8
  %14 = getelementptr inbounds i8, ptr %0, i64 12
  %15 = load i32, ptr %14, align 4
  %.not.i.i.i = icmp slt i32 %13, %15
  %.pre.i.i = load ptr, ptr %0, align 8
  br i1 %.not.i.i.i, label %ir_emit3.exit, label %16

16:                                               ; preds = %7
  %17 = getelementptr inbounds i8, ptr %0, i64 20
  %18 = load i32, ptr %17, align 4
  %19 = icmp slt i32 %15, 4096
  %20 = shl nsw i32 %15, 1
  %21 = icmp ult i32 %15, 8192
  %22 = add nuw nsw i32 %15, 4096
  %spec.select.i.i.i.i = select i1 %21, i32 8192, i32 %22
  %.sink.i.i.i.i = select i1 %19, i32 %20, i32 %spec.select.i.i.i.i
  store i32 %.sink.i.i.i.i, ptr %14, align 4
  %23 = sext i32 %18 to i64
  %24 = sub nsw i64 0, %23
  %25 = getelementptr inbounds %struct._ir_insn, ptr %.pre.i.i, i64 %24
  %26 = add nsw i32 %18, %.sink.i.i.i.i
  %27 = sext i32 %26 to i64
  %28 = shl nsw i64 %27, 4
  %29 = tail call ptr @_erealloc(ptr noundef %25, i64 noundef %28) #24
  %30 = load i32, ptr %17, align 4
  %31 = sext i32 %30 to i64
  %32 = getelementptr inbounds %struct._ir_insn, ptr %29, i64 %31
  store ptr %32, ptr %0, align 8
  br label %ir_emit3.exit

ir_emit3.exit:                                    ; preds = %7, %16
  %33 = phi ptr [ %.pre.i.i, %7 ], [ %32, %16 ]
  %34 = add nsw i32 %13, 1
  store i32 %34, ptr %12, align 8
  %35 = sext i32 %13 to i64
  %36 = getelementptr inbounds %struct._ir_insn, ptr %33, i64 %35
  store i32 %9, ptr %36, align 8
  %37 = getelementptr inbounds i8, ptr %36, i64 4
  store i32 %11, ptr %37, align 4
  %38 = getelementptr inbounds i8, ptr %36, i64 8
  store i32 %2, ptr %38, align 8
  %39 = getelementptr inbounds i8, ptr %36, i64 12
  store i32 %3, ptr %39, align 4
  br label %40

40:                                               ; preds = %4, %ir_emit3.exit
  %.0 = phi i32 [ %13, %ir_emit3.exit ], [ %2, %4 ]
  ret i32 %.0
}